target datalayout = "e-m:e-p270:32:32-p271:32:32-p272:64:64-i64:64-i128:128-f80:128-n8:16:32:64-S128"
target triple = "x86_64-pc-linux-gnu"

%struct.pointf_s = type { double, double }
%struct.boxf = type { %struct.pointf_s, %struct.pointf_s }
%struct.port = type { %struct.pointf_s, double, ptr, i8, i8, i8, i8, i8, i8, ptr }
%struct.path = type { %struct.port, %struct.port, i64, ptr, ptr }

; Function Attrs: nounwind uwtable
define void @add_box(ptr noundef %0, ptr noundef byval(%struct.boxf) align 8 %1) #0 {
  %3 = alloca ptr, align 8
  store ptr %0, ptr %3, align 8, !tbaa !114
  %4 = getelementptr inbounds nuw %struct.boxf, ptr %1, i32 0, i32 0
  %5 = getelementptr inbounds nuw %struct.pointf_s, ptr %4, i32 0, i32 0
  %6 = load double, ptr %5, align 8, !tbaa !116
  %7 = getelementptr inbounds nuw %struct.boxf, ptr %1, i32 0, i32 1
  %8 = getelementptr inbounds nuw %struct.pointf_s, ptr %7, i32 0, i32 0
  %9 = load double, ptr %8, align 8, !tbaa !117
  %10 = fcmp olt double %6, %9
  br i1 %10, label %11, label %28

11:                                               ; preds = %2
  %12 = getelementptr inbounds nuw %struct.boxf, ptr %1, i32 0, i32 0
  %13 = getelementptr inbounds nuw %struct.pointf_s, ptr %12, i32 0, i32 1
  %14 = load double, ptr %13, align 8, !tbaa !118
  %15 = getelementptr inbounds nuw %struct.boxf, ptr %1, i32 0, i32 1
  %16 = getelementptr inbounds nuw %struct.pointf_s, ptr %15, i32 0, i32 1
  %17 = load double, ptr %16, align 8, !tbaa !119
  %18 = fcmp olt double %14, %17
  br i1 %18, label %19, label %28

19:                                               ; preds = %11
  %20 = load ptr, ptr %3, align 8, !tbaa !114
  %21 = getelementptr inbounds nuw %struct.path, ptr %20, i32 0, i32 3
  %22 = load ptr, ptr %21, align 8, !tbaa !120
  %23 = load ptr, ptr %3, align 8, !tbaa !114
  %24 = getelementptr inbounds nuw %struct.path, ptr %23, i32 0, i32 2
  %25 = load i64, ptr %24, align 8, !tbaa !122
  %26 = add i64 %25, 1
  store i64 %26, ptr %24, align 8, !tbaa !122
  %27 = getelementptr inbounds nuw %struct.boxf, ptr %22, i64 %25
  call void @llvm.memcpy.p0.p0.i64(ptr align 8 %27, ptr align 8 %1, i64 32, i1 false), !tbaa.struct !123
  br label %28

28:                                               ; preds = %19, %11, %2
  ret void
}