; Function Attrs: mustprogress nofree norecurse nosync nounwind willreturn memory(readwrite, inaccessiblemem: none) uwtable
define void @add_box(ptr noundef captures(none) %0, ptr noundef readonly byval(%struct.boxf) align 8 captures(none) %1) local_unnamed_addr #6 {
  %3 = load double, ptr %1, align 8, !tbaa !89
  %4 = getelementptr inbounds nuw i8, ptr %1, i64 16
  %5 = load double, ptr %4, align 8, !tbaa !90
  %6 = fcmp olt double %3, %5
  br i1 %6, label %7, label %20

7:                                                ; preds = %2
  %8 = getelementptr inbounds nuw i8, ptr %1, i64 8
  %9 = load double, ptr %8, align 8, !tbaa !91
  %10 = getelementptr inbounds nuw i8, ptr %1, i64 24
  %11 = load double, ptr %10, align 8, !tbaa !92
  %12 = fcmp olt double %9, %11
  br i1 %12, label %13, label %20

13:                                               ; preds = %7
  %14 = getelementptr inbounds nuw i8, ptr %0, i64 104
  %15 = load ptr, ptr %14, align 8, !tbaa !93
  %16 = getelementptr inbounds nuw i8, ptr %0, i64 96
  %17 = load i64, ptr %16, align 8, !tbaa !95
  %18 = add i64 %17, 1
  store i64 %18, ptr %16, align 8, !tbaa !95
  %19 = getelementptr inbounds nuw %struct.boxf, ptr %15, i64 %17
  call void @llvm.memcpy.p0.p0.i64(ptr noundef nonnull align 8 dereferenceable(32) %19, ptr noundef nonnull align 8 dereferenceable(32) %1, i64 32, i1 false), !tbaa.struct !96
  br label %20

20:                                               ; preds = %13, %7, %2
  ret void
}